	.text
	.file	"generator_test.d320fa38-cgu.0"
	.file	1 "/home/deathwish/Append/code/OSTEST/coroutine_asm/generator_test" "src/main.rs"
	.section	.text._ZN3std10sys_common9backtrace28__rust_begin_short_backtrace17h5027b5004f39f9d4E,"ax",@progbits
	.p2align	4, 0x90
	.type	_ZN3std10sys_common9backtrace28__rust_begin_short_backtrace17h5027b5004f39f9d4E,@function
_ZN3std10sys_common9backtrace28__rust_begin_short_backtrace17h5027b5004f39f9d4E:
.Lfunc_begin0:
	.file	2 "/rustc/39f2657d1101b50f9b71ae460b762d330cc8426b/library/std/src/sys_common" "backtrace.rs"
	.loc	2 130 0
	.cfi_startproc
	pushq	%rax
	.cfi_def_cfa_offset 16
.Ltmp0:
	.file	3 "/rustc/39f2657d1101b50f9b71ae460b762d330cc8426b/library/core/src/ops" "function.rs"
	.loc	3 250 5 prologue_end
	callq	*%rdi
.Ltmp1:
	.file	4 "/rustc/39f2657d1101b50f9b71ae460b762d330cc8426b/library/core/src" "hint.rs"
	.loc	4 296 5
	#APP
	#NO_APP
.Ltmp2:
	.loc	2 140 2
	popq	%rax
	.cfi_def_cfa_offset 8
	retq
.Ltmp3:
.Lfunc_end0:
	.size	_ZN3std10sys_common9backtrace28__rust_begin_short_backtrace17h5027b5004f39f9d4E, .Lfunc_end0-_ZN3std10sys_common9backtrace28__rust_begin_short_backtrace17h5027b5004f39f9d4E
	.cfi_endproc

	.section	.text._ZN3std2rt10lang_start17hdc8378547a78ba9dE,"ax",@progbits
	.hidden	_ZN3std2rt10lang_start17hdc8378547a78ba9dE
	.globl	_ZN3std2rt10lang_start17hdc8378547a78ba9dE
	.p2align	4, 0x90
	.type	_ZN3std2rt10lang_start17hdc8378547a78ba9dE,@function
_ZN3std2rt10lang_start17hdc8378547a78ba9dE:
.Lfunc_begin1:
	.file	5 "/rustc/39f2657d1101b50f9b71ae460b762d330cc8426b/library/std/src" "rt.rs"
	.loc	5 159 0
	.cfi_startproc
	pushq	%rax
	.cfi_def_cfa_offset 16
	movl	%ecx, %r8d
	movq	%rdx, %rcx
.Ltmp4:
	movq	%rsi, %rdx
.Ltmp5:
	.loc	5 166 10 prologue_end
	movq	%rdi, (%rsp)
	.loc	5 165 17
	leaq	.Lvtable.0(%rip), %rsi
.Ltmp6:
	.loc	5 0 17 is_stmt 0
	movq	%rsp, %rdi
.Ltmp7:
	.loc	5 165 17
	callq	*_ZN3std2rt19lang_start_internal17he5b8cdd2a9e04c5dE@GOTPCREL(%rip)
.Ltmp8:
	.loc	5 172 2 is_stmt 1
	popq	%rcx
	.cfi_def_cfa_offset 8
	retq
.Ltmp9:
.Lfunc_end1:
	.size	_ZN3std2rt10lang_start17hdc8378547a78ba9dE, .Lfunc_end1-_ZN3std2rt10lang_start17hdc8378547a78ba9dE
	.cfi_endproc

	.section	".text._ZN3std2rt10lang_start28_$u7b$$u7b$closure$u7d$$u7d$17haebc1ac474f0f11dE","ax",@progbits
	.p2align	4, 0x90
	.type	_ZN3std2rt10lang_start28_$u7b$$u7b$closure$u7d$$u7d$17haebc1ac474f0f11dE,@function
_ZN3std2rt10lang_start28_$u7b$$u7b$closure$u7d$$u7d$17haebc1ac474f0f11dE:
.Lfunc_begin2:
	.loc	5 166 0
	.cfi_startproc
	pushq	%rax
	.cfi_def_cfa_offset 16
.Ltmp10:
	.loc	5 166 77 prologue_end
	movq	(%rdi), %rdi
.Ltmp11:
	.loc	5 166 18 is_stmt 0
	callq	_ZN3std10sys_common9backtrace28__rust_begin_short_backtrace17h5027b5004f39f9d4E
	.loc	5 166 100
	xorl	%eax, %eax
	popq	%rcx
	.cfi_def_cfa_offset 8
	retq
.Ltmp12:
.Lfunc_end2:
	.size	_ZN3std2rt10lang_start28_$u7b$$u7b$closure$u7d$$u7d$17haebc1ac474f0f11dE, .Lfunc_end2-_ZN3std2rt10lang_start28_$u7b$$u7b$closure$u7d$$u7d$17haebc1ac474f0f11dE
	.cfi_endproc

	.section	".text._ZN4core3ops8function6FnOnce40call_once$u7b$$u7b$vtable.shim$u7d$$u7d$17hcb4a4e69d3d2039bE","ax",@progbits
	.p2align	4, 0x90
	.type	_ZN4core3ops8function6FnOnce40call_once$u7b$$u7b$vtable.shim$u7d$$u7d$17hcb4a4e69d3d2039bE,@function
_ZN4core3ops8function6FnOnce40call_once$u7b$$u7b$vtable.shim$u7d$$u7d$17hcb4a4e69d3d2039bE:
.Lfunc_begin3:
	.loc	3 250 0 is_stmt 1
	.cfi_startproc
	pushq	%rax
	.cfi_def_cfa_offset 16
.Ltmp13:
	.loc	3 250 5 prologue_end
	movq	(%rdi), %rdi
.Ltmp14:
	.loc	5 166 18
	callq	_ZN3std10sys_common9backtrace28__rust_begin_short_backtrace17h5027b5004f39f9d4E
.Ltmp15:
	.loc	3 250 5
	xorl	%eax, %eax
	popq	%rcx
	.cfi_def_cfa_offset 8
	retq
.Ltmp16:
.Lfunc_end3:
	.size	_ZN4core3ops8function6FnOnce40call_once$u7b$$u7b$vtable.shim$u7d$$u7d$17hcb4a4e69d3d2039bE, .Lfunc_end3-_ZN4core3ops8function6FnOnce40call_once$u7b$$u7b$vtable.shim$u7d$$u7d$17hcb4a4e69d3d2039bE
	.cfi_endproc

	.section	".text._ZN4core3ptr71drop_in_place$LT$generator_test..func3..$u7b$$u7b$closure$u7d$$u7d$$GT$17h010fec23a3495657E","ax",@progbits
	.p2align	4, 0x90
	.type	_ZN4core3ptr71drop_in_place$LT$generator_test..func3..$u7b$$u7b$closure$u7d$$u7d$$GT$17h010fec23a3495657E,@function
_ZN4core3ptr71drop_in_place$LT$generator_test..func3..$u7b$$u7b$closure$u7d$$u7d$$GT$17h010fec23a3495657E:
.Lfunc_begin4:
	.file	6 "/rustc/39f2657d1101b50f9b71ae460b762d330cc8426b/library/core/src/ptr" "mod.rs"
	.loc	6 490 0
	.cfi_startproc
	.loc	6 490 1 prologue_end
	retq
.Ltmp17:
.Lfunc_end4:
	.size	_ZN4core3ptr71drop_in_place$LT$generator_test..func3..$u7b$$u7b$closure$u7d$$u7d$$GT$17h010fec23a3495657E, .Lfunc_end4-_ZN4core3ptr71drop_in_place$LT$generator_test..func3..$u7b$$u7b$closure$u7d$$u7d$$GT$17h010fec23a3495657E
	.cfi_endproc

	.section	.text.func1,"ax",@progbits
	.globl	func1
	.p2align	4, 0x90
	.type	func1,@function
func1:
.Lfunc_begin5:
	.loc	1 35 0
	.cfi_startproc
	movq	%rdi, %rax
.Ltmp18:
	.loc	1 35 27 prologue_end
	movb	$0, 8(%rdi)
	.loc	1 40 2
	retq
.Ltmp19:
.Lfunc_end5:
	.size	func1, .Lfunc_end5-func1
	.cfi_endproc

	.section	.text.func2,"ax",@progbits
	.globl	func2
	.p2align	4, 0x90
	.type	func2,@function
func2:
.Lfunc_begin6:
	.loc	1 44 0
	.cfi_startproc
	movq	%rdi, %rax
.Ltmp20:
	.loc	1 44 27 prologue_end
	movb	$0, (%rdi)
	.loc	1 51 2
	retq
.Ltmp21:
.Lfunc_end6:
	.size	func2, .Lfunc_end6-func2
	.cfi_endproc

	.section	.text.func3,"ax",@progbits
	.globl	func3
	.p2align	4, 0x90
	.type	func3,@function
func3:
.Lfunc_begin7:
	.loc	1 55 0
	.cfi_startproc
	movq	%rdi, %rax
.Ltmp22:
	.loc	1 55 18 prologue_end
	movb	$0, (%rdi)
	.loc	1 63 2
	retq
.Ltmp23:
.Lfunc_end7:
	.size	func3, .Lfunc_end7-func3
	.cfi_endproc

	.section	".text._ZN14generator_test5func328_$u7b$$u7b$closure$u7d$$u7d$17h0eb293ae6e4eaa68E","ax",@progbits
	.p2align	4, 0x90
	.type	_ZN14generator_test5func328_$u7b$$u7b$closure$u7d$$u7d$17h0eb293ae6e4eaa68E,@function
_ZN14generator_test5func328_$u7b$$u7b$closure$u7d$$u7d$17h0eb293ae6e4eaa68E:
.Lfunc_begin8:
	.loc	1 55 0
	.cfi_startproc
	.cfi_personality 155, DW.ref.rust_eh_personality
	.cfi_lsda 27, .Lexception0
	pushq	%r15
	.cfi_def_cfa_offset 16
	pushq	%r14
	.cfi_def_cfa_offset 24
	pushq	%r13
	.cfi_def_cfa_offset 32
	pushq	%r12
	.cfi_def_cfa_offset 40
	pushq	%rbx
	.cfi_def_cfa_offset 48
	subq	$32, %rsp
	.cfi_def_cfa_offset 80
	.cfi_offset %rbx, -48
	.cfi_offset %r12, -40
	.cfi_offset %r13, -32
	.cfi_offset %r14, -24
	.cfi_offset %r15, -16
	movq	%rdi, %r13
.Ltmp45:
	.loc	1 55 18 prologue_end
	movzbl	(%rdi), %eax
	leaq	.LJTI8_0(%rip), %rcx
	movslq	(%rcx,%rax,4), %rax
	addq	%rcx, %rax
	jmpq	*%rax
.Ltmp46:
.LBB8_3:
	.loc	1 56 5
	#APP

	addq	$11259185, %rax

	#NO_APP
	#APP

	subq	$11259185, %rax

	#NO_APP
	.loc	1 57 25
	movq	$0, 8(%r13)
.Ltmp47:
	.loc	1 57 25 is_stmt 0
	movq	(%rsi), %r14
	xorl	%eax, %eax
	jmp	.LBB8_5
.Ltmp48:
.LBB8_8:
	.loc	1 59 12 is_stmt 1
	movq	(%rsi), %r14
	leaq	8(%r13), %rax
	leaq	16(%r13), %r15
.Ltmp49:
	.loc	1 35 27
	movzbl	16(%r13), %ecx
	movl	$34, %esi
.Ltmp50:
	.loc	1 0 27 is_stmt 0
	leaq	str.2(%rip), %rdi
	leaq	.LJTI8_3(%rip), %rdx
	movslq	(%rdx,%rcx,4), %rcx
	addq	%rdx, %rcx
	jmpq	*%rcx
.Ltmp51:
.LBB8_14:
	.loc	1 16 12 is_stmt 1
	movq	(%rax), %rcx
.Ltmp52:
	cmpq	$1, %rcx
	jbe	.LBB8_15
.Ltmp53:
	.loc	1 38 5
	#APP

	addq	$11259154, %rax

	#NO_APP
	#APP

	subq	$11259154, %rax

	#NO_APP
	movb	$1, %cl
	xorl	%eax, %eax
	.loc	1 0 0 is_stmt 0
	movb	%cl, (%r15)
.Ltmp54:
	.loc	1 59 12 is_stmt 1
	testq	%rax, %rax
	jne	.LBB8_22
.Ltmp55:
.LBB8_26:
	.loc	1 60 5
	#APP

	addq	$11259187, %rax

	#NO_APP
	#APP

	subq	$11259187, %rax

	#NO_APP
.Ltmp56:
	.loc	1 61 12
	leaq	8(%r13), %r15
	movb	$0, 8(%r13)
	movups	9(%rsp), %xmm0
	movups	%xmm0, 9(%r13)
	movq	24(%rsp), %rax
	movq	%rax, 24(%r13)
.Ltmp57:
	.loc	1 0 12 is_stmt 0
	jmp	.LBB8_27
.Ltmp58:
.LBB8_23:
	.loc	1 61 12
	movq	(%rsi), %r14
	leaq	8(%r13), %r15
.Ltmp59:
	.loc	1 44 27 is_stmt 1
	movzbl	8(%r13), %eax
	movl	$34, %esi
.Ltmp60:
	.loc	1 0 27 is_stmt 0
	leaq	str.2(%rip), %rdi
	leaq	.LJTI8_1(%rip), %rcx
	movslq	(%rcx,%rax,4), %rax
	addq	%rcx, %rax
	jmpq	*%rax
.Ltmp61:
.LBB8_27:
	.loc	1 45 5 is_stmt 1
	#APP

	addq	$11259169, %rax

	#NO_APP
	#APP

	subq	$11259169, %rax

	#NO_APP
	.loc	1 46 25
	movq	$0, 16(%r13)
	xorl	%eax, %eax
.Ltmp62:
.LBB8_29:
	.loc	1 19 13
	incq	%rax
	movq	%rax, 16(%r13)
.Ltmp63:
	.file	7 "/rustc/39f2657d1101b50f9b71ae460b762d330cc8426b/library/core/src/task" "wake.rs"
	.loc	7 295 50
	movq	(%r14), %rdi
	.loc	7 295 18 is_stmt 0
	movq	8(%r14), %rax
.Ltmp39:
	callq	*16(%rax)
.Ltmp64:
.Ltmp40:
	.loc	7 0 18
	movl	$1, %ecx
	movb	$3, %bl
	movb	%bl, (%r15)
.Ltmp65:
	.loc	1 61 12 is_stmt 1
	testq	%rcx, %rcx
	jne	.LBB8_48
	jmp	.LBB8_49
.Ltmp66:
.LBB8_4:
	.loc	1 16 12
	movq	8(%r13), %rax
.Ltmp67:
	.loc	1 57 25
	movq	(%rsi), %r14
.Ltmp68:
	.loc	1 16 12
	cmpq	$1, %rax
	jbe	.LBB8_5
.Ltmp69:
	.loc	1 58 5
	#APP

	addq	$11259186, %rax

	#NO_APP
	#APP

	subq	$11259186, %rax

	#NO_APP
.Ltmp70:
	.loc	1 59 12
	leaq	8(%r13), %rax
	leaq	16(%r13), %r15
	movb	$0, 16(%r13)
.Ltmp71:
.LBB8_13:
	.loc	1 36 5
	#APP

	addq	$11259153, %rax

	#NO_APP
	#APP

	subq	$11259153, %rax

	#NO_APP
	.loc	1 37 25
	movq	$0, (%rax)
	xorl	%ecx, %ecx
.Ltmp72:
.LBB8_15:
	.loc	1 19 13
	incq	%rcx
	movq	%rcx, (%rax)
.Ltmp73:
	.loc	7 295 50
	movq	(%r14), %rdi
	.loc	7 295 18 is_stmt 0
	movq	8(%r14), %rax
.Ltmp36:
	callq	*16(%rax)
.Ltmp74:
.Ltmp37:
	.loc	7 0 18
	movl	$1, %eax
	movb	$3, %cl
	movb	%cl, (%r15)
.Ltmp75:
	.loc	1 59 12 is_stmt 1
	testq	%rax, %rax
	je	.LBB8_26
.Ltmp76:
.LBB8_22:
	.loc	1 0 12 is_stmt 0
	movb	$1, %al
	movb	$4, %cl
	jmp	.LBB8_7
.Ltmp77:
.LBB8_5:
	.loc	1 19 13 is_stmt 1
	incq	%rax
	movq	%rax, 8(%r13)
.Ltmp78:
	.loc	7 295 50
	movq	(%r14), %rdi
	.loc	7 295 18 is_stmt 0
	movq	8(%r14), %rax
.Ltmp42:
	callq	*16(%rax)
.Ltmp79:
.Ltmp43:
	.loc	7 0 18
	movb	$1, %al
	movb	$3, %cl
	jmp	.LBB8_7
.Ltmp80:
.LBB8_28:
	.loc	1 16 12 is_stmt 1
	movq	16(%r13), %rax
.Ltmp81:
	cmpq	$1, %rax
	jbe	.LBB8_29
.Ltmp82:
	.loc	1 0 12 is_stmt 0
	leaq	16(%r13), %rax
	.loc	1 47 5 is_stmt 1
	#APP

	addq	$11259170, %rax

	#NO_APP
	#APP

	subq	$11259170, %rax

	#NO_APP
.Ltmp83:
	.loc	1 48 12
	leaq	24(%r13), %r12
	movb	$0, 24(%r13)
.Ltmp84:
	.loc	1 0 12 is_stmt 0
	jmp	.LBB8_36
.Ltmp85:
.LBB8_32:
	leaq	24(%r13), %r12
.Ltmp86:
	.loc	1 35 27 is_stmt 1
	movzbl	24(%r13), %ecx
.Ltmp87:
	.loc	1 48 12
	leaq	16(%r13), %rax
	movl	$34, %esi
	leaq	str.2(%rip), %rdi
	leaq	.LJTI8_2(%rip), %rdx
	movslq	(%rdx,%rcx,4), %rcx
	addq	%rdx, %rcx
	jmpq	*%rcx
.Ltmp88:
.LBB8_36:
	.loc	1 36 5
	#APP

	addq	$11259153, %rax

	#NO_APP
	#APP

	subq	$11259153, %rax

	#NO_APP
	.loc	1 37 25
	movq	$0, (%rax)
	xorl	%ecx, %ecx
.Ltmp89:
.LBB8_38:
	.loc	1 19 13
	incq	%rcx
	movq	%rcx, (%rax)
.Ltmp90:
	.loc	7 295 50
	movq	(%r14), %rdi
.Ltmp91:
	.loc	7 295 18 is_stmt 0
	movq	8(%r14), %rax
.Ltmp27:
	callq	*16(%rax)
.Ltmp92:
.Ltmp28:
	.loc	7 0 18
	movl	$1, %eax
	movb	$3, %cl
	movb	%cl, (%r12)
.Ltmp93:
	.loc	1 48 12 is_stmt 1
	testq	%rax, %rax
	je	.LBB8_46
.Ltmp94:
.LBB8_44:
	.loc	1 0 12 is_stmt 0
	movl	$1, %ecx
	movb	$4, %bl
	movb	%bl, (%r15)
.Ltmp95:
	.loc	1 61 12 is_stmt 1
	testq	%rcx, %rcx
	je	.LBB8_49
.Ltmp96:
.LBB8_48:
	.loc	1 0 12 is_stmt 0
	movb	$1, %al
	movb	$5, %cl
	jmp	.LBB8_7
.Ltmp97:
.LBB8_37:
	.loc	1 16 12 is_stmt 1
	movq	(%rax), %rcx
.Ltmp98:
	cmpq	$1, %rcx
	jbe	.LBB8_38
.Ltmp99:
	.loc	1 38 5
	#APP

	addq	$11259154, %rax

	#NO_APP
	#APP

	subq	$11259154, %rax

	#NO_APP
	movb	$1, %cl
	xorl	%eax, %eax
	.loc	1 0 0 is_stmt 0
	movb	%cl, (%r12)
.Ltmp100:
	.loc	1 48 12 is_stmt 1
	testq	%rax, %rax
	jne	.LBB8_44
.Ltmp101:
.LBB8_46:
	.loc	1 49 5
	#APP

	addq	$11259171, %rax

	#NO_APP
	#APP

	subq	$11259171, %rax

	#NO_APP
	movb	$1, %bl
	xorl	%ecx, %ecx
	.loc	1 0 0 is_stmt 0
	movb	%bl, (%r15)
.Ltmp102:
	.loc	1 61 12 is_stmt 1
	testq	%rcx, %rcx
	jne	.LBB8_48
.Ltmp103:
.LBB8_49:
	.loc	1 62 5
	#APP

	addq	$11259188, %rax

	#NO_APP
	#APP

	subq	$11259188, %rax

	#NO_APP
	movb	$1, %cl
	xorl	%eax, %eax
.Ltmp104:
.LBB8_7:
	.loc	1 0 0 is_stmt 0
	movb	%cl, (%r13)
	addq	$32, %rsp
	.cfi_def_cfa_offset 48
	popq	%rbx
	.cfi_def_cfa_offset 40
	popq	%r12
	.cfi_def_cfa_offset 32
	popq	%r13
	.cfi_def_cfa_offset 24
	popq	%r14
	.cfi_def_cfa_offset 16
	popq	%r15
	.cfi_def_cfa_offset 8
	retq
.Ltmp105:
.LBB8_1:
	.cfi_def_cfa_offset 80
	.loc	1 55 18 is_stmt 1
	leaq	str.2(%rip), %rdi
	leaq	.Lalloc_8f35904ecc6186d0c0ebe4a69ae686cc(%rip), %rdx
	movl	$34, %esi
.Ltmp106:
	callq	*_ZN4core9panicking5panic17h730c4f6e947e72e7E@GOTPCREL(%rip)
	ud2
.Ltmp107:
.LBB8_2:
	leaq	str.3(%rip), %rdi
	leaq	.Lalloc_8f35904ecc6186d0c0ebe4a69ae686cc(%rip), %rdx
	movl	$35, %esi
.Ltmp108:
	callq	*_ZN4core9panicking5panic17h730c4f6e947e72e7E@GOTPCREL(%rip)
	ud2
.Ltmp109:
.LBB8_9:
	.loc	1 0 18 is_stmt 0
	movl	$35, %esi
	leaq	str.3(%rip), %rdi
.Ltmp110:
.LBB8_10:
.Ltmp33:
	.loc	1 35 27 is_stmt 1
	leaq	.Lalloc_284d5286fd6d7da1a6423698130a1410(%rip), %rdx
	callq	*_ZN4core9panicking5panic17h730c4f6e947e72e7E@GOTPCREL(%rip)
.Ltmp34:
	jmp	.LBB8_11
.Ltmp111:
.LBB8_24:
	.loc	1 0 27 is_stmt 0
	movl	$35, %esi
	leaq	str.3(%rip), %rdi
.Ltmp112:
.LBB8_25:
.Ltmp30:
	.loc	1 44 27 is_stmt 1
	leaq	.Lalloc_e4cd2a9f1e0bd0b84c8af886a62e7da3(%rip), %rdx
	callq	*_ZN4core9panicking5panic17h730c4f6e947e72e7E@GOTPCREL(%rip)
.Ltmp31:
	jmp	.LBB8_11
.Ltmp113:
.LBB8_33:
	.loc	1 0 27 is_stmt 0
	movl	$35, %esi
	leaq	str.3(%rip), %rdi
.Ltmp114:
.LBB8_34:
.Ltmp24:
	.loc	1 35 27 is_stmt 1
	leaq	.Lalloc_284d5286fd6d7da1a6423698130a1410(%rip), %rdx
	callq	*_ZN4core9panicking5panic17h730c4f6e947e72e7E@GOTPCREL(%rip)
.Ltmp115:
.Ltmp25:
.LBB8_11:
	.loc	1 0 27 is_stmt 0
	ud2
.Ltmp116:
.LBB8_41:
.Ltmp26:
	.loc	1 44 27 is_stmt 1
	movb	$2, (%r15)
	jmp	.LBB8_19
.Ltmp117:
.LBB8_40:
.Ltmp29:
	.loc	1 35 27
	movb	$2, (%r12)
.Ltmp118:
	.loc	1 44 27
	movb	$2, (%r15)
	jmp	.LBB8_19
.Ltmp119:
.LBB8_45:
.Ltmp32:
	.loc	1 0 27 is_stmt 0
	jmp	.LBB8_19
.Ltmp120:
.LBB8_18:
.Ltmp35:
	jmp	.LBB8_19
.Ltmp121:
.LBB8_31:
.Ltmp41:
	.loc	1 44 27
	movb	$2, (%r15)
	jmp	.LBB8_19
.Ltmp122:
.LBB8_17:
.Ltmp38:
	.loc	1 35 27 is_stmt 1
	movb	$2, (%r15)
	jmp	.LBB8_19
.Ltmp123:
.LBB8_50:
.Ltmp44:
.LBB8_19:
	.loc	1 55 18
	movb	$2, (%r13)
	movq	%rax, %rdi
	callq	_Unwind_Resume@PLT
	ud2
.Ltmp124:
.Lfunc_end8:
	.size	_ZN14generator_test5func328_$u7b$$u7b$closure$u7d$$u7d$17h0eb293ae6e4eaa68E, .Lfunc_end8-_ZN14generator_test5func328_$u7b$$u7b$closure$u7d$$u7d$17h0eb293ae6e4eaa68E
	.cfi_endproc
	.section	".rodata._ZN14generator_test5func328_$u7b$$u7b$closure$u7d$$u7d$17h0eb293ae6e4eaa68E","a",@progbits
	.p2align	2
.LJTI8_0:
	.long	.LBB8_3-.LJTI8_0
	.long	.LBB8_2-.LJTI8_0
	.long	.LBB8_1-.LJTI8_0
	.long	.LBB8_4-.LJTI8_0
	.long	.LBB8_8-.LJTI8_0
	.long	.LBB8_23-.LJTI8_0
.LJTI8_1:
	.long	.LBB8_27-.LJTI8_1
	.long	.LBB8_24-.LJTI8_1
	.long	.LBB8_25-.LJTI8_1
	.long	.LBB8_28-.LJTI8_1
	.long	.LBB8_32-.LJTI8_1
.LJTI8_2:
	.long	.LBB8_36-.LJTI8_2
	.long	.LBB8_33-.LJTI8_2
	.long	.LBB8_34-.LJTI8_2
	.long	.LBB8_37-.LJTI8_2
.LJTI8_3:
	.long	.LBB8_13-.LJTI8_3
	.long	.LBB8_9-.LJTI8_3
	.long	.LBB8_10-.LJTI8_3
	.long	.LBB8_14-.LJTI8_3
	.section	".gcc_except_table._ZN14generator_test5func328_$u7b$$u7b$closure$u7d$$u7d$17h0eb293ae6e4eaa68E","a",@progbits
	.p2align	2
GCC_except_table8:
.Lexception0:
	.byte	255
	.byte	255
	.byte	1
	.uleb128 .Lcst_end0-.Lcst_begin0
.Lcst_begin0:
	.uleb128 .Ltmp39-.Lfunc_begin8
	.uleb128 .Ltmp40-.Ltmp39
	.uleb128 .Ltmp41-.Lfunc_begin8
	.byte	0
	.uleb128 .Ltmp36-.Lfunc_begin8
	.uleb128 .Ltmp37-.Ltmp36
	.uleb128 .Ltmp38-.Lfunc_begin8
	.byte	0
	.uleb128 .Ltmp42-.Lfunc_begin8
	.uleb128 .Ltmp43-.Ltmp42
	.uleb128 .Ltmp44-.Lfunc_begin8
	.byte	0
	.uleb128 .Ltmp27-.Lfunc_begin8
	.uleb128 .Ltmp28-.Ltmp27
	.uleb128 .Ltmp29-.Lfunc_begin8
	.byte	0
	.uleb128 .Ltmp28-.Lfunc_begin8
	.uleb128 .Ltmp33-.Ltmp28
	.byte	0
	.byte	0
	.uleb128 .Ltmp33-.Lfunc_begin8
	.uleb128 .Ltmp34-.Ltmp33
	.uleb128 .Ltmp35-.Lfunc_begin8
	.byte	0
	.uleb128 .Ltmp30-.Lfunc_begin8
	.uleb128 .Ltmp31-.Ltmp30
	.uleb128 .Ltmp32-.Lfunc_begin8
	.byte	0
	.uleb128 .Ltmp24-.Lfunc_begin8
	.uleb128 .Ltmp25-.Ltmp24
	.uleb128 .Ltmp26-.Lfunc_begin8
	.byte	0
	.uleb128 .Ltmp25-.Lfunc_begin8
	.uleb128 .Lfunc_end8-.Ltmp25
	.byte	0
	.byte	0
.Lcst_end0:
	.p2align	2

	.section	.text._ZN14generator_test4main17h9c2ab4e61bbfaeb8E,"ax",@progbits
	.p2align	4, 0x90
	.type	_ZN14generator_test4main17h9c2ab4e61bbfaeb8E,@function
_ZN14generator_test4main17h9c2ab4e61bbfaeb8E:
.Lfunc_begin9:
	.loc	1 103 0
	.cfi_startproc
	pushq	%rbx
	.cfi_def_cfa_offset 16
	subq	$48, %rsp
	.cfi_def_cfa_offset 64
	.cfi_offset %rbx, -16
	.file	8 "/home/deathwish/.cargo/git/checkouts/executor-a0a2e254109e617b/85b9335/executor/src" "lib.rs"
	.loc	8 114 5 prologue_end
	movq	_ZN8executor15GLOBAL_EXECUTOR17hbac2c22654d90290E@GOTPCREL(%rip), %rdi
	callq	*_ZN69_$LT$executor..GLOBAL_EXECUTOR$u20$as$u20$core..ops..deref..Deref$GT$5deref17hbdf9da4917a86a18E@GOTPCREL(%rip)
	movq	%rax, %rbx
.Ltmp125:
	.file	9 "/rustc/39f2657d1101b50f9b71ae460b762d330cc8426b/library/alloc/src" "alloc.rs"
	.loc	9 95 14
	movl	$32, %edi
	movl	$8, %esi
	callq	*__rust_alloc@GOTPCREL(%rip)
.Ltmp126:
	.loc	9 326 11
	testq	%rax, %rax
	.loc	9 326 5 is_stmt 0
	je	.LBB9_1
.Ltmp127:
	.file	10 "/rustc/39f2657d1101b50f9b71ae460b762d330cc8426b/library/alloc/src" "boxed.rs"
	.loc	10 219 18 is_stmt 1
	movb	$0, (%rax)
.Ltmp128:
	.loc	8 85 9
	leaq	.Lvtable.1(%rip), %rdx
	movq	%rbx, %rdi
	movq	%rax, %rsi
	callq	*_ZN8executor8Executor8add_task17h99847e23ae723463E@GOTPCREL(%rip)
.Ltmp129:
	.loc	1 105 5
	callq	*_ZN8executor14run_until_idle17h6dbc7a6d9ec3b4bbE@GOTPCREL(%rip)
.Ltmp130:
	.file	11 "/rustc/39f2657d1101b50f9b71ae460b762d330cc8426b/library/core/src/fmt" "mod.rs"
	.loc	11 405 9
	leaq	.Lalloc_2cbfafdd41c166027cdaefa39cad7884(%rip), %rax
.Ltmp131:
	movq	%rax, 16(%rsp)
	movq	$1, 24(%rsp)
	movq	$0, (%rsp)
	leaq	.Lalloc_2bfeba76c1438a46208a034153050220(%rip), %rax
.Ltmp132:
	movq	%rax, 32(%rsp)
	movq	$0, 40(%rsp)
	movq	%rsp, %rdi
.Ltmp133:
	.loc	1 106 5
	callq	*_ZN3std2io5stdio6_print17h98cd3d0df03a5c2fE@GOTPCREL(%rip)
.Ltmp134:
	.loc	1 107 2
	addq	$48, %rsp
	.cfi_def_cfa_offset 16
	popq	%rbx
.Ltmp135:
	.cfi_def_cfa_offset 8
	retq
.Ltmp136:
.LBB9_1:
	.cfi_def_cfa_offset 64
	.loc	9 328 19
	movl	$32, %edi
	movl	$8, %esi
	callq	*_ZN5alloc5alloc18handle_alloc_error17h1b5a57bfc0e1901eE@GOTPCREL(%rip)
	ud2
.Ltmp137:
.Lfunc_end9:
	.size	_ZN14generator_test4main17h9c2ab4e61bbfaeb8E, .Lfunc_end9-_ZN14generator_test4main17h9c2ab4e61bbfaeb8E
	.cfi_endproc

	.section	.text.main,"ax",@progbits
	.globl	main
	.p2align	4, 0x90
	.type	main,@function
main:
.Lfunc_begin10:
	.cfi_startproc
	pushq	%rax
	.cfi_def_cfa_offset 16
	movq	%rsi, %rcx
	movq	__rustc_debug_gdb_scripts_section__@GOTPCREL(%rip), %rax
	movzbl	(%rax), %eax
	movslq	%edi, %rdx
	leaq	_ZN14generator_test4main17h9c2ab4e61bbfaeb8E(%rip), %rax
	movq	%rax, (%rsp)
	leaq	.Lvtable.0(%rip), %rsi
	movq	%rsp, %rdi
	xorl	%r8d, %r8d
	callq	*_ZN3std2rt19lang_start_internal17he5b8cdd2a9e04c5dE@GOTPCREL(%rip)
	popq	%rcx
	.cfi_def_cfa_offset 8
	retq
.Lfunc_end10:
	.size	main, .Lfunc_end10-main
	.cfi_endproc

	.type	.Lvtable.0,@object
	.section	.data.rel.ro..Lvtable.0,"aw",@progbits
	.p2align	3
.Lvtable.0:
	.quad	_ZN4core3ptr71drop_in_place$LT$generator_test..func3..$u7b$$u7b$closure$u7d$$u7d$$GT$17h010fec23a3495657E
	.asciz	"\b\000\000\000\000\000\000\000\b\000\000\000\000\000\000"
	.quad	_ZN4core3ops8function6FnOnce40call_once$u7b$$u7b$vtable.shim$u7d$$u7d$17hcb4a4e69d3d2039bE
	.quad	_ZN3std2rt10lang_start28_$u7b$$u7b$closure$u7d$$u7d$17haebc1ac474f0f11dE
	.quad	_ZN3std2rt10lang_start28_$u7b$$u7b$closure$u7d$$u7d$17haebc1ac474f0f11dE
	.size	.Lvtable.0, 48

	.type	.Lalloc_2bfeba76c1438a46208a034153050220,@object
	.section	.rodata..Lalloc_2bfeba76c1438a46208a034153050220,"a",@progbits
	.p2align	3
.Lalloc_2bfeba76c1438a46208a034153050220:
	.size	.Lalloc_2bfeba76c1438a46208a034153050220, 0

	.type	.Lvtable.1,@object
	.section	.data.rel.ro..Lvtable.1,"aw",@progbits
	.p2align	3
.Lvtable.1:
	.quad	_ZN4core3ptr71drop_in_place$LT$generator_test..func3..$u7b$$u7b$closure$u7d$$u7d$$GT$17h010fec23a3495657E
	.asciz	" \000\000\000\000\000\000\000\b\000\000\000\000\000\000"
	.quad	_ZN14generator_test5func328_$u7b$$u7b$closure$u7d$$u7d$17h0eb293ae6e4eaa68E
	.size	.Lvtable.1, 32

	.type	.Lalloc_e6be5dfb8781ea8fe51c14afb3821e96,@object
	.section	.rodata..Lalloc_e6be5dfb8781ea8fe51c14afb3821e96,"a",@progbits
.Lalloc_e6be5dfb8781ea8fe51c14afb3821e96:
	.ascii	"src/main.rs"
	.size	.Lalloc_e6be5dfb8781ea8fe51c14afb3821e96, 11

	.type	.Lalloc_284d5286fd6d7da1a6423698130a1410,@object
	.section	.data.rel.ro..Lalloc_284d5286fd6d7da1a6423698130a1410,"aw",@progbits
	.p2align	3
.Lalloc_284d5286fd6d7da1a6423698130a1410:
	.quad	.Lalloc_e6be5dfb8781ea8fe51c14afb3821e96
	.asciz	"\013\000\000\000\000\000\000\000#\000\000\000\033\000\000"
	.size	.Lalloc_284d5286fd6d7da1a6423698130a1410, 24

	.type	str.2,@object
	.section	.rodata.str.2,"a",@progbits
	.p2align	4
str.2:
	.ascii	"`async fn` resumed after panicking"
	.size	str.2, 34

	.type	str.3,@object
	.section	.rodata.str.3,"a",@progbits
	.p2align	4
str.3:
	.ascii	"`async fn` resumed after completion"
	.size	str.3, 35

	.type	.Lalloc_e4cd2a9f1e0bd0b84c8af886a62e7da3,@object
	.section	.data.rel.ro..Lalloc_e4cd2a9f1e0bd0b84c8af886a62e7da3,"aw",@progbits
	.p2align	3
.Lalloc_e4cd2a9f1e0bd0b84c8af886a62e7da3:
	.quad	.Lalloc_e6be5dfb8781ea8fe51c14afb3821e96
	.asciz	"\013\000\000\000\000\000\000\000,\000\000\000\033\000\000"
	.size	.Lalloc_e4cd2a9f1e0bd0b84c8af886a62e7da3, 24

	.type	.Lalloc_8f35904ecc6186d0c0ebe4a69ae686cc,@object
	.section	.data.rel.ro..Lalloc_8f35904ecc6186d0c0ebe4a69ae686cc,"aw",@progbits
	.p2align	3
.Lalloc_8f35904ecc6186d0c0ebe4a69ae686cc:
	.quad	.Lalloc_e6be5dfb8781ea8fe51c14afb3821e96
	.asciz	"\013\000\000\000\000\000\000\0007\000\000\000\022\000\000"
	.size	.Lalloc_8f35904ecc6186d0c0ebe4a69ae686cc, 24

	.type	.Lalloc_97f6bc264494bb54548de2da9abf7913,@object
	.section	.rodata..Lalloc_97f6bc264494bb54548de2da9abf7913,"a",@progbits
.Lalloc_97f6bc264494bb54548de2da9abf7913:
	.ascii	"ALL DONE\n"
	.size	.Lalloc_97f6bc264494bb54548de2da9abf7913, 9

	.type	.Lalloc_2cbfafdd41c166027cdaefa39cad7884,@object
	.section	.data.rel.ro..Lalloc_2cbfafdd41c166027cdaefa39cad7884,"aw",@progbits
	.p2align	3
.Lalloc_2cbfafdd41c166027cdaefa39cad7884:
	.quad	.Lalloc_97f6bc264494bb54548de2da9abf7913
	.asciz	"\t\000\000\000\000\000\000"
	.size	.Lalloc_2cbfafdd41c166027cdaefa39cad7884, 16

	.type	__rustc_debug_gdb_scripts_section__,@object
	.section	.debug_gdb_scripts,"aMS",@progbits,1,unique,1
	.weak	__rustc_debug_gdb_scripts_section__
__rustc_debug_gdb_scripts_section__:
	.asciz	"\001gdb_load_rust_pretty_printers.py"
	.size	__rustc_debug_gdb_scripts_section__, 34

	.section	.data.rel.ro..Lvtable.0,"aw",@progbits
.Lsec_end0:
	.section	.data.rel.ro..Lvtable.1,"aw",@progbits
.Lsec_end1:
	.section	.text._ZN3std10sys_common9backtrace28__rust_begin_short_backtrace17h5027b5004f39f9d4E,"ax",@progbits
.Lsec_end2:
	.section	.text._ZN3std2rt10lang_start17hdc8378547a78ba9dE,"ax",@progbits
.Lsec_end3:
	.section	".text._ZN3std2rt10lang_start28_$u7b$$u7b$closure$u7d$$u7d$17haebc1ac474f0f11dE","ax",@progbits
.Lsec_end4:
	.section	".text._ZN4core3ops8function6FnOnce40call_once$u7b$$u7b$vtable.shim$u7d$$u7d$17hcb4a4e69d3d2039bE","ax",@progbits
.Lsec_end5:
	.section	".text._ZN4core3ptr71drop_in_place$LT$generator_test..func3..$u7b$$u7b$closure$u7d$$u7d$$GT$17h010fec23a3495657E","ax",@progbits
.Lsec_end6:
	.section	.text.func1,"ax",@progbits
.Lsec_end7:
	.section	.text.func2,"ax",@progbits
.Lsec_end8:
	.section	.text.func3,"ax",@progbits
.Lsec_end9:
	.section	".text._ZN14generator_test5func328_$u7b$$u7b$closure$u7d$$u7d$17h0eb293ae6e4eaa68E","ax",@progbits
.Lsec_end10:
	.section	.text._ZN14generator_test4main17h9c2ab4e61bbfaeb8E,"ax",@progbits
.Lsec_end11:
	.section	.data.DW.ref.rust_eh_personality,"aGw",@progbits,DW.ref.rust_eh_personality,comdat
	.p2align	3
	.type	DW.ref.rust_eh_personality,@object
	.size	DW.ref.rust_eh_personality, 8
DW.ref.rust_eh_personality:
	.quad	rust_eh_personality
	.section	".note.GNU-stack","",@progbits